target datalayout = "e-m:e-p270:32:32-p271:32:32-p272:64:64-i64:64-i128:128-f80:128-n8:16:32:64-S128"
target triple = "x86_64-pc-linux-gnu"

%struct.SDL_GPUDevice = type { ptr, ptr, ptr, ptr, ptr, ptr, ptr, ptr, ptr, ptr, ptr, ptr, ptr, ptr, ptr, ptr, ptr, ptr, ptr, ptr, ptr, ptr, ptr, ptr, ptr, ptr, ptr, ptr, ptr, ptr, ptr, ptr, ptr, ptr, ptr, ptr, ptr, ptr, ptr, ptr, ptr, ptr, ptr, ptr, ptr, ptr, ptr, ptr, ptr, ptr, ptr, ptr, ptr, ptr, ptr, ptr, ptr, ptr, ptr, ptr, ptr, ptr, ptr, ptr, ptr, ptr, ptr, ptr, ptr, ptr, ptr, ptr, ptr, ptr, ptr, ptr, ptr, ptr, ptr, ptr, ptr, ptr, ptr, ptr, ptr, i32, i8 }
%struct.SDL_GPUShaderCreateInfo = type { i64, ptr, ptr, i32, i32, i32, i32, i32, i32, i32 }

@.str.3 = private unnamed_addr constant [19 x i8] c"Invalid GPU device\00", align 1
@.str.4 = private unnamed_addr constant [26 x i8] c"Parameter '%s' is invalid\00", align 1
@.str.8 = private unnamed_addr constant [103 x i8] c"generated/home/dtcxzyw/WorkSpace/Projects/compilers/llvm-opt-benchmark/bench/sdl/SDL/src/gpu/SDL_gpu.c\00", align 1
@.str.11 = private unnamed_addr constant [11 x i8] c"createinfo\00", align 1
@SDL_CreateGPUShader_REAL.sdl_assert_data = internal global { i8, [3 x i8], i32, ptr, ptr, i32, [4 x i8], ptr, ptr } { i8 0, [3 x i8] zeroinitializer, i32 0, ptr @.str.13, ptr null, i32 0, [4 x i8] zeroinitializer, ptr null, ptr null }, align 8
@__func__.SDL_CreateGPUShader_REAL = private unnamed_addr constant [25 x i8] c"SDL_CreateGPUShader_REAL\00", align 1
@SDL_CreateGPUShader_REAL.sdl_assert_data.101 = internal global { i8, [3 x i8], i32, ptr, ptr, i32, [4 x i8], ptr, ptr } { i8 0, [3 x i8] zeroinitializer, i32 0, ptr @.str.16, ptr null, i32 0, [4 x i8] zeroinitializer, ptr null, ptr null }, align 8

; Function Attrs: nounwind uwtable
define hidden ptr @SDL_CreateGPUShader_REAL(ptr noundef %0, ptr noundef %1) #0 {
  %3 = alloca ptr, align 8
  %4 = alloca ptr, align 8
  %5 = alloca ptr, align 8
  %6 = alloca i32, align 4
  %7 = alloca i32, align 4
  %8 = alloca i32, align 4
  store ptr %0, ptr %4, align 8
  store ptr %1, ptr %5, align 8
  %9 = load ptr, ptr %4, align 8
  %10 = icmp eq ptr %9, null
  br i1 %10, label %11, label %13

11:                                               ; preds = %2
  %12 = call zeroext i1 (ptr, ...) @SDL_SetError_REAL(ptr noundef @.str.3)
  store ptr null, ptr %3, align 8
  br label %81

13:                                               ; preds = %2
  %14 = load ptr, ptr %5, align 8
  %15 = icmp eq ptr %14, null
  br i1 %15, label %16, label %18

16:                                               ; preds = %13
  %17 = call zeroext i1 (ptr, ...) @SDL_SetError_REAL(ptr noundef @.str.4, ptr noundef @.str.11)
  store ptr null, ptr %3, align 8
  br label %81

18:                                               ; preds = %13
  %19 = load ptr, ptr %4, align 8
  %20 = getelementptr inbounds nuw %struct.SDL_GPUDevice, ptr %19, i32 0, i32 86
  %21 = load i8, ptr %20, align 4, !range !5, !noundef !6
  %22 = trunc i8 %21 to i1
  br i1 %22, label %23, label %72

23:                                               ; preds = %18
  %24 = load ptr, ptr %5, align 8
  %25 = getelementptr inbounds nuw %struct.SDL_GPUShaderCreateInfo, ptr %24, i32 0, i32 3
  %26 = load i32, ptr %25, align 8
  %27 = icmp eq i32 %26, 0
  br i1 %27, label %28, label %45

28:                                               ; preds = %23
  br label %29

29:                                               ; preds = %28
  br label %30

30:                                               ; preds = %29, %41
  call void @llvm.lifetime.start.p0(i64 4, ptr %6) #6
  %31 = call i32 @SDL_ReportAssertion_REAL(ptr noundef @SDL_CreateGPUShader_REAL.sdl_assert_data, ptr noundef @__func__.SDL_CreateGPUShader_REAL, ptr noundef @.str.8, i32 noundef 1069)
  store i32 %31, ptr %6, align 4
  %32 = load i32, ptr %6, align 4
  %33 = icmp eq i32 %32, 0
  br i1 %33, label %34, label %35

34:                                               ; preds = %30
  store i32 4, ptr %7, align 4
  br label %41

35:                                               ; preds = %30
  %36 = load i32, ptr %6, align 4
  %37 = icmp eq i32 %36, 1
  br i1 %37, label %38, label %39

38:                                               ; preds = %35
  call void @llvm.debugtrap()
  br label %39

39:                                               ; preds = %38, %35
  br label %40

40:                                               ; preds = %39
  store i32 5, ptr %7, align 4
  br label %41

41:                                               ; preds = %40, %34
  call void @llvm.lifetime.end.p0(i64 4, ptr %6) #6
  %42 = load i32, ptr %7, align 4
  switch i32 %42, label %83 [
    i32 4, label %30
    i32 5, label %43
  ]

43:                                               ; preds = %41
  br label %44

44:                                               ; preds = %43
  store ptr null, ptr %3, align 8
  br label %81

45:                                               ; preds = %23
  %46 = load ptr, ptr %5, align 8
  %47 = getelementptr inbounds nuw %struct.SDL_GPUShaderCreateInfo, ptr %46, i32 0, i32 3
  %48 = load i32, ptr %47, align 8
  %49 = load ptr, ptr %4, align 8
  %50 = getelementptr inbounds nuw %struct.SDL_GPUDevice, ptr %49, i32 0, i32 85
  %51 = load i32, ptr %50, align 8
  %52 = and i32 %48, %51
  %53 = icmp ne i32 %52, 0
  br i1 %53, label %71, label %54

54:                                               ; preds = %45
  br label %55

55:                                               ; preds = %54
  br label %56

56:                                               ; preds = %55, %67
  call void @llvm.lifetime.start.p0(i64 4, ptr %8) #6
  %57 = call i32 @SDL_ReportAssertion_REAL(ptr noundef @SDL_CreateGPUShader_REAL.sdl_assert_data.101, ptr noundef @__func__.SDL_CreateGPUShader_REAL, ptr noundef @.str.8, i32 noundef 1073)
  store i32 %57, ptr %8, align 4
  %58 = load i32, ptr %8, align 4
  %59 = icmp eq i32 %58, 0
  br i1 %59, label %60, label %61

60:                                               ; preds = %56
  store i32 8, ptr %7, align 4
  br label %67

61:                                               ; preds = %56
  %62 = load i32, ptr %8, align 4
  %63 = icmp eq i32 %62, 1
  br i1 %63, label %64, label %65

64:                                               ; preds = %61
  call void @llvm.debugtrap()
  br label %65

65:                                               ; preds = %64, %61
  br label %66

66:                                               ; preds = %65
  store i32 9, ptr %7, align 4
  br label %67

67:                                               ; preds = %66, %60
  call void @llvm.lifetime.end.p0(i64 4, ptr %8) #6
  %68 = load i32, ptr %7, align 4
  switch i32 %68, label %83 [
    i32 8, label %56
    i32 9, label %69
  ]

69:                                               ; preds = %67
  br label %70

70:                                               ; preds = %69
  store ptr null, ptr %3, align 8
  br label %81

71:                                               ; preds = %45
  br label %72

72:                                               ; preds = %71, %18
  %73 = load ptr, ptr %4, align 8
  %74 = getelementptr inbounds nuw %struct.SDL_GPUDevice, ptr %73, i32 0, i32 5
  %75 = load ptr, ptr %74, align 8
  %76 = load ptr, ptr %4, align 8
  %77 = getelementptr inbounds nuw %struct.SDL_GPUDevice, ptr %76, i32 0, i32 83
  %78 = load ptr, ptr %77, align 8
  %79 = load ptr, ptr %5, align 8
  %80 = call ptr %75(ptr noundef %78, ptr noundef %79)
  store ptr %80, ptr %3, align 8
  br label %81

81:                                               ; preds = %72, %70, %44, %16, %11
  %82 = load ptr, ptr %3, align 8
  ret ptr %82

83:                                               ; preds = %67, %41
  unreachable
}