; Function Attrs: nounwind uwtable
define hidden ptr @SDL_CreateGPUShader_REAL(ptr noundef readonly captures(address_is_null) %0, ptr noundef %1) local_unnamed_addr #0 {
  %3 = icmp eq ptr %0, null
  br i1 %3, label %4, label %6

4:                                                ; preds = %2
  %5 = tail call zeroext i1 (ptr, ...) @SDL_SetError_REAL(ptr noundef nonnull @.str.3) #7
  br label %.thread

6:                                                ; preds = %2
  %7 = icmp eq ptr %1, null
  br i1 %7, label %8, label %10

8:                                                ; preds = %6
  %9 = tail call zeroext i1 (ptr, ...) @SDL_SetError_REAL(ptr noundef nonnull @.str.4, ptr noundef nonnull @.str.11) #7
  br label %.thread

10:                                               ; preds = %6
  %11 = getelementptr inbounds nuw i8, ptr %0, i64 684
  %12 = load i8, ptr %11, align 4, !range !5, !noundef !6
  %13 = trunc nuw i8 %12 to i1
  br i1 %13, label %14, label %26

14:                                               ; preds = %10
  %15 = getelementptr inbounds nuw i8, ptr %1, i64 24
  %16 = load i32, ptr %15, align 8
  %17 = icmp eq i32 %16, 0
  br i1 %17, label %.preheader, label %20

.preheader:                                       ; preds = %14, %.preheader
  %18 = tail call i32 @SDL_ReportAssertion_REAL(ptr noundef nonnull @SDL_CreateGPUShader_REAL.sdl_assert_data, ptr noundef nonnull @__func__.SDL_CreateGPUShader_REAL, ptr noundef nonnull @.str.8, i32 noundef 1069) #7
  switch i32 %18, label %.thread [
    i32 0, label %.preheader
    i32 1, label %19
  ]

19:                                               ; preds = %.preheader
  tail call void @llvm.debugtrap()
  br label %.thread

20:                                               ; preds = %14
  %21 = getelementptr inbounds nuw i8, ptr %0, i64 680
  %22 = load i32, ptr %21, align 8
  %23 = and i32 %22, %16
  %.not = icmp eq i32 %23, 0
  br i1 %.not, label %.preheader30, label %26

.preheader30:                                     ; preds = %20, %.preheader30
  %24 = tail call i32 @SDL_ReportAssertion_REAL(ptr noundef nonnull @SDL_CreateGPUShader_REAL.sdl_assert_data.101, ptr noundef nonnull @__func__.SDL_CreateGPUShader_REAL, ptr noundef nonnull @.str.8, i32 noundef 1073) #7
  switch i32 %24, label %.thread [
    i32 0, label %.preheader30
    i32 1, label %25
  ]

25:                                               ; preds = %.preheader30
  tail call void @llvm.debugtrap()
  br label %.thread

26:                                               ; preds = %20, %10
  %27 = getelementptr inbounds nuw i8, ptr %0, i64 40
  %28 = load ptr, ptr %27, align 8
  %29 = getelementptr inbounds nuw i8, ptr %0, i64 664
  %30 = load ptr, ptr %29, align 8
  %31 = tail call ptr %28(ptr noundef %30, ptr noundef nonnull %1) #7
  br label %.thread

.thread:                                          ; preds = %.preheader30, %.preheader, %25, %19, %26, %8, %4
  %.0 = phi ptr [ null, %4 ], [ null, %8 ], [ %31, %26 ], [ null, %19 ], [ null, %25 ], [ null, %.preheader ], [ null, %.preheader30 ]
  ret ptr %.0
}